target datalayout = "e-m:e-p270:32:32-p271:32:32-p272:64:64-i64:64-i128:128-f80:128-n8:16:32:64-S128"
target triple = "x86_64-pc-linux-gnu"

%"class.std::__1::unique_lock" = type <{ ptr, i8, [7 x i8] }>
%"class.std::__1::__assoc_sub_state" = type <{ %"class.std::__1::__shared_count", %"class.std::exception_ptr", %"class.std::__1::mutex", %"class.std::__1::condition_variable", i32, [4 x i8] }>
%"class.std::__1::__shared_count" = type { ptr, i64 }
%"class.std::exception_ptr" = type { ptr }
%"class.std::__1::mutex" = type { %union.pthread_mutex_t }
%union.pthread_mutex_t = type { %struct.__pthread_mutex_s }
%struct.__pthread_mutex_s = type { i32, i32, i32, i32, i32, i16, i16, %struct.__pthread_internal_list }
%struct.__pthread_internal_list = type { ptr, ptr }
%"class.std::__1::condition_variable" = type { %union.pthread_cond_t }
%union.pthread_cond_t = type { %struct.__pthread_cond_s }
%struct.__pthread_cond_s = type { %union.__atomic_wide_counter, %union.__atomic_wide_counter, [2 x i32], [2 x i32], i32, i32, [2 x i32] }
%union.__atomic_wide_counter = type { i64 }

@.str.7 = private unnamed_addr constant [32 x i8] c"unique_lock::unlock: not locked\00", align 1

; Function Attrs: mustprogress uwtable
define linkonce_odr hidden void @_ZNSt3__111unique_lockINS_5mutexEE6unlockB8ne210000Ev(ptr noundef nonnull align 8 dereferenceable(9) %0) #1 comdat align 2 {
  %2 = alloca ptr, align 8
  store ptr %0, ptr %2, align 8, !tbaa !34
  %3 = load ptr, ptr %2, align 8
  %4 = getelementptr inbounds nuw %"class.std::__1::unique_lock", ptr %3, i32 0, i32 1
  %5 = load i8, ptr %4, align 8, !tbaa !41, !range !44, !noundef !45
  %6 = trunc i8 %5 to i1
  br i1 %6, label %8, label %7

7:                                                ; preds = %1
  call void @_ZNSt3__120__throw_system_errorEiPKc(i32 noundef 1, ptr noundef @.str.7) #18
  unreachable

8:                                                ; preds = %1
  %9 = getelementptr inbounds nuw %"class.std::__1::unique_lock", ptr %3, i32 0, i32 0
  %10 = load ptr, ptr %9, align 8, !tbaa !38
  call void @_ZNSt3__15mutex6unlockEv(ptr noundef nonnull align 8 dereferenceable(40) %10) #2
  %11 = getelementptr inbounds nuw %"class.std::__1::unique_lock", ptr %3, i32 0, i32 1
  store i8 0, ptr %11, align 8, !tbaa !41
  ret void
}

; Function Attrs: mustprogress nounwind uwtable
define linkonce_odr hidden noundef zeroext i1 @_ZNKSt3__117__assoc_sub_state10__is_readyB8ne210000Ev(ptr noundef nonnull align 8 dereferenceable(116) %0) #0 comdat align 2 {
  %2 = alloca ptr, align 8
  store ptr %0, ptr %2, align 8, !tbaa !25
  %3 = load ptr, ptr %2, align 8
  %4 = getelementptr inbounds nuw %"class.std::__1::__assoc_sub_state", ptr %3, i32 0, i32 4
  %5 = load i32, ptr %4, align 8, !tbaa !27
  %6 = and i32 %5, 4
  %7 = icmp ne i32 %6, 0
  ret i1 %7
}

; Function Attrs: mustprogress nounwind uwtable
define linkonce_odr hidden void @_ZNSt3__111unique_lockINS_5mutexEED2B8ne210000Ev(ptr noundef nonnull align 8 dereferenceable(9) %0) unnamed_addr #0 comdat align 2 {
  %2 = alloca ptr, align 8
  store ptr %0, ptr %2, align 8, !tbaa !34
  %3 = load ptr, ptr %2, align 8
  %4 = getelementptr inbounds nuw %"class.std::__1::unique_lock", ptr %3, i32 0, i32 1
  %5 = load i8, ptr %4, align 8, !tbaa !41, !range !44, !noundef !45
  %6 = trunc i8 %5 to i1
  br i1 %6, label %7, label %10

7:                                                ; preds = %1
  %8 = getelementptr inbounds nuw %"class.std::__1::unique_lock", ptr %3, i32 0, i32 0
  %9 = load ptr, ptr %8, align 8, !tbaa !38
  call void @_ZNSt3__15mutex6unlockEv(ptr noundef nonnull align 8 dereferenceable(40) %9) #2
  br label %10

10:                                               ; preds = %7, %1
  ret void
}

; Function Attrs: mustprogress uwtable
define dso_local void @_ZNSt3__117__assoc_sub_state10__sub_waitERNS_11unique_lockINS_5mutexEEE(ptr noundef nonnull align 8 dereferenceable(116) %0, ptr noundef nonnull align 8 dereferenceable(9) %1) #1 align 2 {
  %3 = alloca ptr, align 8
  %4 = alloca ptr, align 8
  store ptr %0, ptr %3, align 8, !tbaa !25
  store ptr %1, ptr %4, align 8, !tbaa !34
  %5 = load ptr, ptr %3, align 8
  %6 = call noundef zeroext i1 @_ZNKSt3__117__assoc_sub_state10__is_readyB8ne210000Ev(ptr noundef nonnull align 8 dereferenceable(116) %5)
  br i1 %6, label %29, label %7

7:                                                ; preds = %2
  %8 = getelementptr inbounds nuw %"class.std::__1::__assoc_sub_state", ptr %5, i32 0, i32 4
  %9 = load i32, ptr %8, align 8, !tbaa !27
  %10 = and i32 %9, 8
  %11 = icmp ne i32 %10, 0
  br i1 %11, label %12, label %20

12:                                               ; preds = %7
  %13 = getelementptr inbounds nuw %"class.std::__1::__assoc_sub_state", ptr %5, i32 0, i32 4
  %14 = load i32, ptr %13, align 8, !tbaa !27
  %15 = and i32 %14, -9
  store i32 %15, ptr %13, align 8, !tbaa !27
  %16 = load ptr, ptr %4, align 8, !tbaa !34
  call void @_ZNSt3__111unique_lockINS_5mutexEE6unlockB8ne210000Ev(ptr noundef nonnull align 8 dereferenceable(9) %16)
  %17 = load ptr, ptr %5, align 8, !tbaa !20
  %18 = getelementptr inbounds ptr, ptr %17, i64 3
  %19 = load ptr, ptr %18, align 8
  call void %19(ptr noundef nonnull align 8 dereferenceable(116) %5)
  br label %28

20:                                               ; preds = %7
  br label %21

21:                                               ; preds = %24, %20
  %22 = call noundef zeroext i1 @_ZNKSt3__117__assoc_sub_state10__is_readyB8ne210000Ev(ptr noundef nonnull align 8 dereferenceable(116) %5)
  %23 = xor i1 %22, true
  br i1 %23, label %24, label %27

24:                                               ; preds = %21
  %25 = getelementptr inbounds nuw %"class.std::__1::__assoc_sub_state", ptr %5, i32 0, i32 3
  %26 = load ptr, ptr %4, align 8, !tbaa !34
  call void @_ZNSt3__118condition_variable4waitERNS_11unique_lockINS_5mutexEEE(ptr noundef nonnull align 8 dereferenceable(48) %25, ptr noundef nonnull align 8 dereferenceable(9) %26) #2
  br label %21, !llvm.loop !50

27:                                               ; preds = %21
  br label %28

28:                                               ; preds = %27, %12
  br label %29

29:                                               ; preds = %28, %2
  ret void
}

; Function Attrs: mustprogress uwtable
define linkonce_odr hidden void @_ZNSt3__111unique_lockINS_5mutexEEC2B8ne210000ERS1_(ptr noundef nonnull align 8 dereferenceable(9) %0, ptr noundef nonnull align 8 dereferenceable(40) %1) unnamed_addr #1 comdat align 2 {
  %3 = alloca ptr, align 8
  %4 = alloca ptr, align 8
  store ptr %0, ptr %3, align 8, !tbaa !34
  store ptr %1, ptr %4, align 8, !tbaa !36
  %5 = load ptr, ptr %3, align 8
  %6 = getelementptr inbounds nuw %"class.std::__1::unique_lock", ptr %5, i32 0, i32 0
  %7 = load ptr, ptr %4, align 8, !tbaa !36
  store ptr %7, ptr %6, align 8, !tbaa !38
  %8 = getelementptr inbounds nuw %"class.std::__1::unique_lock", ptr %5, i32 0, i32 1
  store i8 1, ptr %8, align 8, !tbaa !41
  %9 = getelementptr inbounds nuw %"class.std::__1::unique_lock", ptr %5, i32 0, i32 0
  %10 = load ptr, ptr %9, align 8, !tbaa !38
  call void @_ZNSt3__15mutex4lockEv(ptr noundef nonnull align 8 dereferenceable(40) %10)
  ret void
}

; Function Attrs: mustprogress uwtable
define dso_local void @_ZNSt3__117__assoc_sub_state4waitEv(ptr noundef nonnull align 8 dereferenceable(116) %0) #1 align 2 personality ptr @__gxx_personality_v0 {
  %2 = alloca ptr, align 8
  %3 = alloca %"class.std::__1::unique_lock", align 8
  %4 = alloca ptr, align 8
  %5 = alloca i32, align 4
  store ptr %0, ptr %2, align 8, !tbaa !25
  %6 = load ptr, ptr %2, align 8
  call void @llvm.lifetime.start.p0(i64 16, ptr %3) #2
  %7 = getelementptr inbounds nuw %"class.std::__1::__assoc_sub_state", ptr %6, i32 0, i32 2
  call void @_ZNSt3__111unique_lockINS_5mutexEEC2B8ne210000ERS1_(ptr noundef nonnull align 8 dereferenceable(9) %3, ptr noundef nonnull align 8 dereferenceable(40) %7)
  invoke void @_ZNSt3__117__assoc_sub_state10__sub_waitERNS_11unique_lockINS_5mutexEEE(ptr noundef nonnull align 8 dereferenceable(116) %6, ptr noundef nonnull align 8 dereferenceable(9) %3)
          to label %8 unwind label %9

8:                                                ; preds = %1
  call void @_ZNSt3__111unique_lockINS_5mutexEED2B8ne210000Ev(ptr noundef nonnull align 8 dereferenceable(9) %3) #2
  call void @llvm.lifetime.end.p0(i64 16, ptr %3) #2
  ret void

9:                                                ; preds = %1
  %10 = landingpad { ptr, i32 }
          cleanup
  %11 = extractvalue { ptr, i32 } %10, 0
  store ptr %11, ptr %4, align 8
  %12 = extractvalue { ptr, i32 } %10, 1
  store i32 %12, ptr %5, align 4
  call void @_ZNSt3__111unique_lockINS_5mutexEED2B8ne210000Ev(ptr noundef nonnull align 8 dereferenceable(9) %3) #2
  call void @llvm.lifetime.end.p0(i64 16, ptr %3) #2
  br label %13

13:                                               ; preds = %9
  %14 = load ptr, ptr %4, align 8
  %15 = load i32, ptr %5, align 4
  %16 = insertvalue { ptr, i32 } poison, ptr %14, 0
  %17 = insertvalue { ptr, i32 } %16, i32 %15, 1
  resume { ptr, i32 } %17
}