; Function Attrs: mustprogress uwtable
define dso_local void @_ZNSt3__117__assoc_sub_state4waitEv(ptr noundef nonnull align 8 dereferenceable(116) %0) local_unnamed_addr #1 align 2 personality ptr @__gxx_personality_v0 {
  %2 = alloca %"class.std::__1::unique_lock", align 8
  call void @llvm.lifetime.start.p0(i64 16, ptr nonnull %2) #21
  %3 = getelementptr inbounds nuw i8, ptr %0, i64 24
  store ptr %3, ptr %2, align 8, !tbaa !26
  %4 = getelementptr inbounds nuw i8, ptr %2, i64 8
  store i8 1, ptr %4, align 8, !tbaa !30
  tail call void @_ZNSt3__15mutex4lockEv(ptr noundef nonnull align 8 dereferenceable(40) %3)
  %5 = getelementptr inbounds nuw i8, ptr %0, i64 112
  %6 = load i32, ptr %5, align 8, !tbaa !16
  %7 = and i32 %6, 4
  %.not3.i = icmp eq i32 %7, 0
  br i1 %.not3.i, label %8, label %_ZNSt3__117__assoc_sub_state10__sub_waitERNS_11unique_lockINS_5mutexEEE.exit.thread

8:                                                ; preds = %1
  %9 = and i32 %6, 8
  %.not.i = icmp eq i32 %9, 0
  br i1 %.not.i, label %.lr.ph.i, label %_ZNSt3__111unique_lockINS_5mutexEE6unlockB8ne210000Ev.exit.i

.lr.ph.i:                                         ; preds = %8
  %10 = getelementptr inbounds nuw i8, ptr %0, i64 64
  br label %15

_ZNSt3__111unique_lockINS_5mutexEE6unlockB8ne210000Ev.exit.i: ; preds = %8
  %11 = and i32 %6, -13
  store i32 %11, ptr %5, align 8, !tbaa !16
  tail call void @_ZNSt3__15mutex6unlockEv(ptr noundef nonnull align 8 dereferenceable(40) %3) #21
  %12 = load ptr, ptr %0, align 8, !tbaa !8
  %13 = getelementptr inbounds nuw i8, ptr %12, i64 24
  %14 = load ptr, ptr %13, align 8
  tail call void %14(ptr noundef nonnull align 8 dereferenceable(116) %0)
  br label %_ZNSt3__111unique_lockINS_5mutexEED2B8ne210000Ev.exit

15:                                               ; preds = %15, %.lr.ph.i
  call void @_ZNSt3__118condition_variable4waitERNS_11unique_lockINS_5mutexEEE(ptr noundef nonnull align 8 dereferenceable(48) %10, ptr noundef nonnull align 8 dereferenceable(9) %2) #21
  %16 = load i32, ptr %5, align 8, !tbaa !16
  %17 = and i32 %16, 4
  %.not4.i = icmp eq i32 %17, 0
  br i1 %.not4.i, label %15, label %_ZNSt3__117__assoc_sub_state10__sub_waitERNS_11unique_lockINS_5mutexEEE.exit, !llvm.loop !31

_ZNSt3__117__assoc_sub_state10__sub_waitERNS_11unique_lockINS_5mutexEEE.exit: ; preds = %15
  %.pre = load i8, ptr %4, align 8, !tbaa !30, !range !33
  %18 = trunc nuw i8 %.pre to i1
  br i1 %18, label %_ZNSt3__117__assoc_sub_state10__sub_waitERNS_11unique_lockINS_5mutexEEE.exit.thread, label %_ZNSt3__111unique_lockINS_5mutexEED2B8ne210000Ev.exit

_ZNSt3__117__assoc_sub_state10__sub_waitERNS_11unique_lockINS_5mutexEEE.exit.thread: ; preds = %1, %_ZNSt3__117__assoc_sub_state10__sub_waitERNS_11unique_lockINS_5mutexEEE.exit
  %19 = load ptr, ptr %2, align 8, !tbaa !26
  call void @_ZNSt3__15mutex6unlockEv(ptr noundef nonnull align 8 dereferenceable(40) %19) #21
  br label %_ZNSt3__111unique_lockINS_5mutexEED2B8ne210000Ev.exit

_ZNSt3__111unique_lockINS_5mutexEED2B8ne210000Ev.exit: ; preds = %_ZNSt3__111unique_lockINS_5mutexEE6unlockB8ne210000Ev.exit.i, %_ZNSt3__117__assoc_sub_state10__sub_waitERNS_11unique_lockINS_5mutexEEE.exit, %_ZNSt3__117__assoc_sub_state10__sub_waitERNS_11unique_lockINS_5mutexEEE.exit.thread
  call void @llvm.lifetime.end.p0(i64 16, ptr nonnull %2) #21
  ret void
}